target datalayout = "e-m:e-p270:32:32-p271:32:32-p272:64:64-i64:64-i128:128-f80:128-n8:16:32:64-S128"
target triple = "x86_64-pc-linux-gnu"

%struct.IDAMemRec = type { ptr, double, ptr, ptr, i32, double, double, ptr, i32, i32, ptr, ptr, i32, i32, [6 x ptr], [6 x double], [6 x double], [6 x double], [6 x double], [6 x double], ptr, ptr, ptr, ptr, ptr, ptr, ptr, ptr, ptr, ptr, ptr, ptr, ptr, ptr, ptr, ptr, ptr, double, ptr, ptr, i32, i32, i32, i32, i32, i32, i32, i32, double, double, double, i32, double, i32, i32, i32, i32, i32, double, double, double, double, double, double, double, double, double, double, double, double, double, double, double, double, i32, i32, i32, i32, i64, double, double, double, double, double, double, double, double, double, i64, i64, i64, i64, i64, i64, i64, i64, i64, i64, i64, double, i32, i32, i32, i32, i32, ptr, i32, ptr, ptr, ptr, ptr, ptr, ptr, ptr, double, i32, ptr, i32, ptr, ptr, double, double, double, ptr, ptr, ptr, double, double, i32, i32, i64, ptr, i32, [6 x double], [5 x double], [6 x ptr], [6 x ptr] }
%struct.IDALsMemRec = type { i32, i32, i32, ptr, ptr, ptr, ptr, ptr, ptr, ptr, ptr, ptr, ptr, i32, double, double, double, i64, i64, i64, i64, i64, i64, i64, i64, i64, i64, i64, i64, i64, i64, double, i32, ptr, ptr, ptr, ptr, i32, ptr, ptr, ptr, ptr }

@.str = private unnamed_addr constant [112 x i8] c"generated/home/dtcxzyw/WorkSpace/Projects/compilers/llvm-opt-benchmark/bench/sundials/sundials/src/ida/ida_ls.c\00", align 1
@.str.1 = private unnamed_addr constant [27 x i8] c"Integrator memory is NULL.\00", align 1
@.str.30 = private unnamed_addr constant [30 x i8] c"Linear solver memory is NULL.\00", align 1
@__func__.idaLsDQJtimes = private unnamed_addr constant [14 x i8] c"idaLsDQJtimes\00", align 1

; Function Attrs: nounwind uwtable
define i32 @idaLs_AccessLMem(ptr noundef %0, ptr noundef %1, ptr noundef %2, ptr noundef %3) #0 {
  %5 = alloca i32, align 4
  %6 = alloca ptr, align 8
  %7 = alloca ptr, align 8
  %8 = alloca ptr, align 8
  %9 = alloca ptr, align 8
  store ptr %0, ptr %6, align 8, !tbaa !3
  store ptr %1, ptr %7, align 8, !tbaa !117
  store ptr %2, ptr %8, align 8, !tbaa !119
  store ptr %3, ptr %9, align 8, !tbaa !121
  %10 = load ptr, ptr %6, align 8, !tbaa !3
  %11 = icmp eq ptr %10, null
  br i1 %11, label %12, label %14

12:                                               ; preds = %4
  %13 = load ptr, ptr %7, align 8, !tbaa !117
  call void (ptr, i32, i32, ptr, ptr, ptr, ...) @IDAProcessError(ptr noundef null, i32 noundef -1, i32 noundef 1766, ptr noundef %13, ptr noundef @.str, ptr noundef @.str.1)
  store i32 -1, ptr %5, align 4
  br label %32

14:                                               ; preds = %4
  %15 = load ptr, ptr %6, align 8, !tbaa !3
  %16 = load ptr, ptr %8, align 8, !tbaa !119
  store ptr %15, ptr %16, align 8, !tbaa !11
  %17 = load ptr, ptr %8, align 8, !tbaa !119
  %18 = load ptr, ptr %17, align 8, !tbaa !11
  %19 = getelementptr inbounds nuw %struct.IDAMemRec, ptr %18, i32 0, i32 113
  %20 = load ptr, ptr %19, align 8, !tbaa !75
  %21 = icmp eq ptr %20, null
  br i1 %21, label %22, label %26

22:                                               ; preds = %14
  %23 = load ptr, ptr %8, align 8, !tbaa !119
  %24 = load ptr, ptr %23, align 8, !tbaa !11
  %25 = load ptr, ptr %7, align 8, !tbaa !117
  call void (ptr, i32, i32, ptr, ptr, ptr, ...) @IDAProcessError(ptr noundef %24, i32 noundef -2, i32 noundef 1773, ptr noundef %25, ptr noundef @.str, ptr noundef @.str.30)
  store i32 -2, ptr %5, align 4
  br label %32

26:                                               ; preds = %14
  %27 = load ptr, ptr %8, align 8, !tbaa !119
  %28 = load ptr, ptr %27, align 8, !tbaa !11
  %29 = getelementptr inbounds nuw %struct.IDAMemRec, ptr %28, i32 0, i32 113
  %30 = load ptr, ptr %29, align 8, !tbaa !75
  %31 = load ptr, ptr %9, align 8, !tbaa !121
  store ptr %30, ptr %31, align 8, !tbaa !45
  store i32 0, ptr %5, align 4
  br label %32

32:                                               ; preds = %26, %22, %12
  %33 = load i32, ptr %5, align 4
  ret i32 %33
}

; Function Attrs: nounwind uwtable
define i32 @idaLsDQJtimes(double noundef %0, ptr noundef %1, ptr noundef %2, ptr noundef %3, ptr noundef %4, ptr noundef %5, double noundef %6, ptr noundef %7, ptr noundef %8, ptr noundef %9) #0 {
  %11 = alloca i32, align 4
  %12 = alloca double, align 8
  %13 = alloca ptr, align 8
  %14 = alloca ptr, align 8
  %15 = alloca ptr, align 8
  %16 = alloca ptr, align 8
  %17 = alloca ptr, align 8
  %18 = alloca double, align 8
  %19 = alloca ptr, align 8
  %20 = alloca ptr, align 8
  %21 = alloca ptr, align 8
  %22 = alloca ptr, align 8
  %23 = alloca ptr, align 8
  %24 = alloca ptr, align 8
  %25 = alloca ptr, align 8
  %26 = alloca double, align 8
  %27 = alloca double, align 8
  %28 = alloca i32, align 4
  %29 = alloca i32, align 4
  %30 = alloca i32, align 4
  %31 = alloca i32, align 4
  store double %0, ptr %12, align 8, !tbaa !92
  store ptr %1, ptr %13, align 8, !tbaa !81
  store ptr %2, ptr %14, align 8, !tbaa !81
  store ptr %3, ptr %15, align 8, !tbaa !81
  store ptr %4, ptr %16, align 8, !tbaa !81
  store ptr %5, ptr %17, align 8, !tbaa !81
  store double %6, ptr %18, align 8, !tbaa !92
  store ptr %7, ptr %19, align 8, !tbaa !3
  store ptr %8, ptr %20, align 8, !tbaa !81
  store ptr %9, ptr %21, align 8, !tbaa !81
  call void @llvm.lifetime.start.p0(i64 8, ptr %22) #7
  call void @llvm.lifetime.start.p0(i64 8, ptr %23) #7
  call void @llvm.lifetime.start.p0(i64 8, ptr %24) #7
  call void @llvm.lifetime.start.p0(i64 8, ptr %25) #7
  call void @llvm.lifetime.start.p0(i64 8, ptr %26) #7
  call void @llvm.lifetime.start.p0(i64 8, ptr %27) #7
  call void @llvm.lifetime.start.p0(i64 4, ptr %28) #7
  call void @llvm.lifetime.start.p0(i64 4, ptr %29) #7
  call void @llvm.lifetime.start.p0(i64 4, ptr %30) #7
  %32 = load ptr, ptr %19, align 8, !tbaa !3
  %33 = call i32 @idaLs_AccessLMem(ptr noundef %32, ptr noundef @__func__.idaLsDQJtimes, ptr noundef %22, ptr noundef %23)
  store i32 %33, ptr %29, align 4, !tbaa !20
  %34 = load i32, ptr %29, align 4, !tbaa !20
  %35 = icmp ne i32 %34, 0
  br i1 %35, label %36, label %38

36:                                               ; preds = %10
  %37 = load i32, ptr %29, align 4, !tbaa !20
  store i32 %37, ptr %11, align 4
  store i32 1, ptr %31, align 4
  br label %124

38:                                               ; preds = %10
  %39 = load ptr, ptr %23, align 8, !tbaa !45
  %40 = getelementptr inbounds nuw %struct.IDALsMemRec, ptr %39, i32 0, i32 5
  %41 = load ptr, ptr %40, align 8, !tbaa !47
  %42 = call i32 @SUNLinSolGetID(ptr noundef %41)
  store i32 %42, ptr %30, align 4, !tbaa !20
  %43 = load i32, ptr %30, align 4, !tbaa !20
  %44 = icmp eq i32 %43, 8
  br i1 %44, label %48, label %45

45:                                               ; preds = %38
  %46 = load i32, ptr %30, align 4, !tbaa !20
  %47 = icmp eq i32 %46, 7
  br i1 %47, label %48, label %56

48:                                               ; preds = %45, %38
  %49 = load ptr, ptr %23, align 8, !tbaa !45
  %50 = getelementptr inbounds nuw %struct.IDALsMemRec, ptr %49, i32 0, i32 15
  %51 = load double, ptr %50, align 8, !tbaa !73
  %52 = load ptr, ptr %23, align 8, !tbaa !45
  %53 = getelementptr inbounds nuw %struct.IDALsMemRec, ptr %52, i32 0, i32 16
  %54 = load double, ptr %53, align 8, !tbaa !67
  %55 = fmul double %51, %54
  store double %55, ptr %26, align 8, !tbaa !92
  br label %66

56:                                               ; preds = %45
  %57 = load ptr, ptr %23, align 8, !tbaa !45
  %58 = getelementptr inbounds nuw %struct.IDALsMemRec, ptr %57, i32 0, i32 16
  %59 = load double, ptr %58, align 8, !tbaa !67
  %60 = load ptr, ptr %16, align 8, !tbaa !81
  %61 = load ptr, ptr %22, align 8, !tbaa !11
  %62 = getelementptr inbounds nuw %struct.IDAMemRec, ptr %61, i32 0, i32 20
  %63 = load ptr, ptr %62, align 8, !tbaa !113
  %64 = call double @N_VWrmsNorm(ptr noundef %60, ptr noundef %63)
  %65 = fdiv double %59, %64
  store double %65, ptr %26, align 8, !tbaa !92
  br label %66

66:                                               ; preds = %56, %48
  %67 = load ptr, ptr %20, align 8, !tbaa !81
  store ptr %67, ptr %24, align 8, !tbaa !81
  %68 = load ptr, ptr %21, align 8, !tbaa !81
  store ptr %68, ptr %25, align 8, !tbaa !81
  store i32 0, ptr %28, align 4, !tbaa !20
  br label %69

69:                                               ; preds = %108, %66
  %70 = load i32, ptr %28, align 4, !tbaa !20
  %71 = icmp slt i32 %70, 3
  br i1 %71, label %72, label %111

72:                                               ; preds = %69
  %73 = load double, ptr %26, align 8, !tbaa !92
  %74 = load ptr, ptr %16, align 8, !tbaa !81
  %75 = load ptr, ptr %13, align 8, !tbaa !81
  %76 = load ptr, ptr %24, align 8, !tbaa !81
  call void @N_VLinearSum(double noundef %73, ptr noundef %74, double noundef 1.000000e+00, ptr noundef %75, ptr noundef %76)
  %77 = load double, ptr %18, align 8, !tbaa !92
  %78 = load double, ptr %26, align 8, !tbaa !92
  %79 = fmul double %77, %78
  %80 = load ptr, ptr %16, align 8, !tbaa !81
  %81 = load ptr, ptr %14, align 8, !tbaa !81
  %82 = load ptr, ptr %25, align 8, !tbaa !81
  call void @N_VLinearSum(double noundef %79, ptr noundef %80, double noundef 1.000000e+00, ptr noundef %81, ptr noundef %82)
  %83 = load ptr, ptr %23, align 8, !tbaa !45
  %84 = getelementptr inbounds nuw %struct.IDALsMemRec, ptr %83, i32 0, i32 40
  %85 = load ptr, ptr %84, align 8, !tbaa !59
  %86 = load double, ptr %12, align 8, !tbaa !92
  %87 = load ptr, ptr %24, align 8, !tbaa !81
  %88 = load ptr, ptr %25, align 8, !tbaa !81
  %89 = load ptr, ptr %17, align 8, !tbaa !81
  %90 = load ptr, ptr %22, align 8, !tbaa !11
  %91 = getelementptr inbounds nuw %struct.IDAMemRec, ptr %90, i32 0, i32 3
  %92 = load ptr, ptr %91, align 8, !tbaa !64
  %93 = call i32 %85(double noundef %86, ptr noundef %87, ptr noundef %88, ptr noundef %89, ptr noundef %92)
  store i32 %93, ptr %29, align 4, !tbaa !20
  %94 = load ptr, ptr %23, align 8, !tbaa !45
  %95 = getelementptr inbounds nuw %struct.IDALsMemRec, ptr %94, i32 0, i32 22
  %96 = load i64, ptr %95, align 8, !tbaa !114
  %97 = add nsw i64 %96, 1
  store i64 %97, ptr %95, align 8, !tbaa !114
  %98 = load i32, ptr %29, align 4, !tbaa !20
  %99 = icmp eq i32 %98, 0
  br i1 %99, label %100, label %101

100:                                              ; preds = %72
  br label %111

101:                                              ; preds = %72
  %102 = load i32, ptr %29, align 4, !tbaa !20
  %103 = icmp slt i32 %102, 0
  br i1 %103, label %104, label %105

104:                                              ; preds = %101
  store i32 -1, ptr %11, align 4
  store i32 1, ptr %31, align 4
  br label %124

105:                                              ; preds = %101
  %106 = load double, ptr %26, align 8, !tbaa !92
  %107 = fmul double %106, 2.500000e-01
  store double %107, ptr %26, align 8, !tbaa !92
  br label %108

108:                                              ; preds = %105
  %109 = load i32, ptr %28, align 4, !tbaa !20
  %110 = add nsw i32 %109, 1
  store i32 %110, ptr %28, align 4, !tbaa !20
  br label %69

111:                                              ; preds = %100, %69
  %112 = load i32, ptr %29, align 4, !tbaa !20
  %113 = icmp sgt i32 %112, 0
  br i1 %113, label %114, label %115

114:                                              ; preds = %111
  store i32 1, ptr %11, align 4
  store i32 1, ptr %31, align 4
  br label %124

115:                                              ; preds = %111
  %116 = load double, ptr %26, align 8, !tbaa !92
  %117 = fdiv double 1.000000e+00, %116
  store double %117, ptr %27, align 8, !tbaa !92
  %118 = load double, ptr %27, align 8, !tbaa !92
  %119 = load ptr, ptr %17, align 8, !tbaa !81
  %120 = load double, ptr %27, align 8, !tbaa !92
  %121 = fneg double %120
  %122 = load ptr, ptr %15, align 8, !tbaa !81
  %123 = load ptr, ptr %17, align 8, !tbaa !81
  call void @N_VLinearSum(double noundef %118, ptr noundef %119, double noundef %121, ptr noundef %122, ptr noundef %123)
  store i32 0, ptr %11, align 4
  store i32 1, ptr %31, align 4
  br label %124

124:                                              ; preds = %115, %114, %104, %36
  call void @llvm.lifetime.end.p0(i64 4, ptr %30) #7
  call void @llvm.lifetime.end.p0(i64 4, ptr %29) #7
  call void @llvm.lifetime.end.p0(i64 4, ptr %28) #7
  call void @llvm.lifetime.end.p0(i64 8, ptr %27) #7
  call void @llvm.lifetime.end.p0(i64 8, ptr %26) #7
  call void @llvm.lifetime.end.p0(i64 8, ptr %25) #7
  call void @llvm.lifetime.end.p0(i64 8, ptr %24) #7
  call void @llvm.lifetime.end.p0(i64 8, ptr %23) #7
  call void @llvm.lifetime.end.p0(i64 8, ptr %22) #7
  %125 = load i32, ptr %11, align 4
  ret i32 %125
}