; Function Attrs: nounwind uwtable
define range(i32 -2, 2) i32 @idaLsDQJtimes(double noundef %0, ptr noundef %1, ptr noundef %2, ptr noundef %3, ptr noundef %4, ptr noundef %5, double noundef %6, ptr noundef %7, ptr noundef %8, ptr noundef %9) #0 {
  %11 = icmp eq ptr %7, null
  br i1 %11, label %12, label %13

12:                                               ; preds = %10
  tail call void (ptr, i32, i32, ptr, ptr, ptr, ...) @IDAProcessError(ptr noundef null, i32 noundef -1, i32 noundef 1766, ptr noundef nonnull @__func__.idaLsDQJtimes, ptr noundef nonnull @.str, ptr noundef nonnull @.str.1) #13
  br label %idaLs_AccessLMem.exit.thread

13:                                               ; preds = %10
  %14 = getelementptr inbounds nuw i8, ptr %7, i64 1048
  %15 = load ptr, ptr %14, align 8, !tbaa !65
  %16 = icmp eq ptr %15, null
  br i1 %16, label %17, label %idaLs_AccessLMem.exit

17:                                               ; preds = %13
  tail call void (ptr, i32, i32, ptr, ptr, ptr, ...) @IDAProcessError(ptr noundef nonnull %7, i32 noundef -2, i32 noundef 1773, ptr noundef nonnull @__func__.idaLsDQJtimes, ptr noundef nonnull @.str, ptr noundef nonnull @.str.30) #13
  br label %idaLs_AccessLMem.exit.thread

idaLs_AccessLMem.exit:                            ; preds = %13
  %18 = getelementptr inbounds nuw i8, ptr %15, i64 32
  %19 = load ptr, ptr %18, align 8, !tbaa !37
  %20 = tail call i32 @SUNLinSolGetID(ptr noundef %19) #13
  %21 = add i32 %20, -7
  %or.cond = icmp ult i32 %21, 2
  br i1 %or.cond, label %22, label %28

22:                                               ; preds = %idaLs_AccessLMem.exit
  %23 = getelementptr inbounds nuw i8, ptr %15, i64 112
  %24 = load double, ptr %23, align 8, !tbaa !63
  %25 = getelementptr inbounds nuw i8, ptr %15, i64 120
  %26 = load double, ptr %25, align 8, !tbaa !56
  %27 = fmul double %24, %26
  br label %35

28:                                               ; preds = %idaLs_AccessLMem.exit
  %29 = getelementptr inbounds nuw i8, ptr %15, i64 120
  %30 = load double, ptr %29, align 8, !tbaa !56
  %31 = getelementptr inbounds nuw i8, ptr %7, i64 384
  %32 = load ptr, ptr %31, align 8, !tbaa !101
  %33 = tail call double @N_VWrmsNorm(ptr noundef %4, ptr noundef %32) #13
  %34 = fdiv double %30, %33
  br label %35

35:                                               ; preds = %28, %22
  %.036 = phi double [ %27, %22 ], [ %34, %28 ]
  %36 = getelementptr inbounds nuw i8, ptr %15, i64 312
  %37 = getelementptr inbounds nuw i8, ptr %7, i64 24
  %38 = getelementptr inbounds nuw i8, ptr %15, i64 168
  br label %39

39:                                               ; preds = %35, %49
  %.03559 = phi i32 [ 0, %35 ], [ %51, %49 ]
  %.13758 = phi double [ %.036, %35 ], [ %50, %49 ]
  tail call void @N_VLinearSum(double noundef %.13758, ptr noundef %4, double noundef 1.000000e+00, ptr noundef %1, ptr noundef %8) #13
  %40 = fmul double %6, %.13758
  tail call void @N_VLinearSum(double noundef %40, ptr noundef %4, double noundef 1.000000e+00, ptr noundef %2, ptr noundef %9) #13
  %41 = load ptr, ptr %36, align 8, !tbaa !51
  %42 = load ptr, ptr %37, align 8, !tbaa !53
  %43 = tail call i32 %41(double noundef %0, ptr noundef %8, ptr noundef %9, ptr noundef %5, ptr noundef %42) #13
  %44 = load i64, ptr %38, align 8, !tbaa !102
  %45 = add nsw i64 %44, 1
  store i64 %45, ptr %38, align 8, !tbaa !102
  %46 = icmp eq i32 %43, 0
  br i1 %46, label %.thread, label %47

47:                                               ; preds = %39
  %48 = icmp slt i32 %43, 0
  br i1 %48, label %idaLs_AccessLMem.exit.thread, label %49

49:                                               ; preds = %47
  %50 = fmul double %.13758, 2.500000e-01
  %51 = add nuw nsw i32 %.03559, 1
  %exitcond.not = icmp eq i32 %51, 3
  br i1 %exitcond.not, label %idaLs_AccessLMem.exit.thread, label %39

.thread:                                          ; preds = %39
  %52 = fdiv double 1.000000e+00, %.13758
  %53 = fneg double %52
  tail call void @N_VLinearSum(double noundef %52, ptr noundef %5, double noundef %53, ptr noundef %3, ptr noundef %5) #13
  br label %idaLs_AccessLMem.exit.thread

idaLs_AccessLMem.exit.thread:                     ; preds = %47, %49, %17, %12, %.thread
  %.0 = phi i32 [ 0, %.thread ], [ -2, %17 ], [ -1, %12 ], [ 1, %49 ], [ -1, %47 ]
  ret i32 %.0
}